var PEExportData = [{name:'v8.dll',value:[{hint:0,name:'??0AccessorInfo@v8@@QAE@PAPAVObject@internal@1@@Z'},{hint:1,name:'??0ActivityControl@v8@@QAE@ABV01@@Z'},{hint:2,name:'??0ActivityControl@v8@@QAE@XZ'},{hint:3,name:'??0AsciiValue@String@v8@@QAE@V?$Handle@VValue@v8@@@2@@Z'},{hint:4,name:'??0DeclareExtension@v8@@QAE@PAVExtension@1@@Z'},{hint:5,name:'??0Extension@v8@@QAE@PBD0HPAPBD@Z'},{hint:6,name:'??0ExtensionConfiguration@v8@@QAE@HQAPBD@Z'},{hint:7,name:'??0ExternalAsciiStringResource@String@v8@@IAE@XZ'},{hint:8,name:'??0ExternalStringResource@String@v8@@IAE@XZ'},{hint:9,name:'??0ExternalStringResourceBase@String@v8@@IAE@XZ'},{hint:10,name:'??0HandleScope@v8@@QAE@XZ'},{hint:11,name:'??0HeapStatistics@v8@@QAE@XZ'},{hint:12,name:'??0Locker@v8@@QAE@PAVIsolate@1@@Z'},{hint:13,name:'??0OutputStream@v8@@QAE@ABV01@@Z'},{hint:14,name:'??0OutputStream@v8@@QAE@XZ'},{hint:15,name:'??0ResourceConstraints@v8@@QAE@XZ'},{hint:16,name:'??0RetainedObjectInfo@v8@@IAE@XZ'},{hint:17,name:'??0Scope@Isolate@v8@@QAE@PAV12@@Z'},{hint:18,name:'??0ScriptData@v8@@QAE@ABV01@@Z'},{hint:19,name:'??0ScriptData@v8@@QAE@XZ'},{hint:20,name:'??0StartupDataDecompressor@v8@@QAE@ABV01@@Z'},{hint:21,name:'??0StartupDataDecompressor@v8@@QAE@XZ'},{hint:22,name:'??0TryCatch@v8@@QAE@XZ'},{hint:23,name:'??0Unlocker@v8@@QAE@PAVIsolate@1@@Z'},{hint:24,name:'??0Utf8Value@String@v8@@QAE@V?$Handle@VValue@v8@@@2@@Z'},{hint:25,name:'??0Value@String@v8@@QAE@V?$Handle@VValue@v8@@@2@@Z'},{hint:26,name:'??1ActivityControl@v8@@UAE@XZ'},{hint:27,name:'??1AsciiValue@String@v8@@QAE@XZ'},{hint:28,name:'??1Extension@v8@@UAE@XZ'},{hint:29,name:'??1ExternalAsciiStringResource@String@v8@@UAE@XZ'},{hint:30,name:'??1ExternalStringResource@String@v8@@UAE@XZ'},{hint:31,name:'??1ExternalStringResourceBase@String@v8@@UAE@XZ'},{hint:32,name:'??1HandleScope@v8@@QAE@XZ'},{hint:33,name:'??1Locker@v8@@QAE@XZ'},{hint:34,name:'??1OutputStream@v8@@UAE@XZ'},{hint:35,name:'??1RetainedObjectInfo@v8@@MAE@XZ'},{hint:36,name:'??1Scope@Isolate@v8@@QAE@XZ'},{hint:37,name:'??1ScriptData@v8@@UAE@XZ'},{hint:38,name:'??1StartupDataDecompressor@v8@@UAE@XZ'},{hint:39,name:'??1TryCatch@v8@@QAE@XZ'},{hint:40,name:'??1Unlocker@v8@@QAE@XZ'},{hint:41,name:'??1Utf8Value@String@v8@@QAE@XZ'},{hint:42,name:'??1Value@String@v8@@QAE@XZ'},{hint:43,name:'??4AccessorInfo@v8@@QAEAAV01@ABV01@@Z'},{hint:44,name:'??4ActivityControl@v8@@QAEAAV01@ABV01@@Z'},{hint:45,name:'??4Context@v8@@QAEAAV01@ABV01@@Z'},{hint:46,name:'??4CpuProfile@v8@@QAEAAV01@ABV01@@Z'},{hint:47,name:'??4CpuProfileNode@v8@@QAEAAV01@ABV01@@Z'},{hint:48,name:'??4CpuProfiler@v8@@QAEAAV01@ABV01@@Z'},{hint:49,name:'??4Data@HandleScope@v8@@QAEAAV012@ABV012@@Z'},{hint:50,name:'??4Data@v8@@QAEAAV01@ABV01@@Z'},{hint:51,name:'??4Debug@v8@@QAEAAV01@ABV01@@Z'},{hint:52,name:'??4DeclareExtension@v8@@QAEAAV01@ABV01@@Z'},{hint:53,name:'??4Exception@v8@@QAEAAV01@ABV01@@Z'},{hint:54,name:'??4ExtensionConfiguration@v8@@QAEAAV01@ABV01@@Z'},{hint:55,name:'??4FunctionTemplate@v8@@QAEAAV01@ABV01@@Z'},{hint:56,name:'??4HeapGraphEdge@v8@@QAEAAV01@ABV01@@Z'},{hint:57,name:'??4HeapGraphNode@v8@@QAEAAV01@ABV01@@Z'},{hint:58,name:'??4HeapProfiler@v8@@QAEAAV01@ABV01@@Z'},{hint:59,name:'??4HeapSnapshot@v8@@QAEAAV01@ABV01@@Z'},{hint:60,name:'??4HeapStatistics@v8@@QAEAAV01@ABV01@@Z'},{hint:61,name:'??4Message@v8@@QAEAAV01@ABV01@@Z'},{hint:62,name:'??4ObjectTemplate@v8@@QAEAAV01@ABV01@@Z'},{hint:63,name:'??4OutputStream@v8@@QAEAAV01@ABV01@@Z'},{hint:64,name:'??4ResourceConstraints@v8@@QAEAAV01@ABV01@@Z'},{hint:65,name:'??4Script@v8@@QAEAAV01@ABV01@@Z'},{hint:66,name:'??4ScriptData@v8@@QAEAAV01@ABV01@@Z'},{hint:67,name:'??4Signature@v8@@QAEAAV01@ABV01@@Z'},{hint:68,name:'??4StackFrame@v8@@QAEAAV01@ABV01@@Z'},{hint:69,name:'??4StackTrace@v8@@QAEAAV01@ABV01@@Z'},{hint:70,name:'??4StartupDataDecompressor@v8@@QAEAAV01@ABV01@@Z'},{hint:71,name:'??4Template@v8@@QAEAAV01@ABV01@@Z'},{hint:72,name:'??4Testing@v8@@QAEAAV01@ABV01@@Z'},{hint:73,name:'??4TryCatch@v8@@QAEAAV01@ABV01@@Z'},{hint:74,name:'??4TypeSwitch@v8@@QAEAAV01@ABV01@@Z'},{hint:75,name:'??4Unlocker@v8@@QAEAAV01@ABV01@@Z'},{hint:76,name:'??4V8@v8@@QAEAAV01@ABV01@@Z'},{hint:77,name:'??DAsciiValue@String@v8@@QAEPADXZ'},{hint:78,name:'??DAsciiValue@String@v8@@QBEPBDXZ'},{hint:79,name:'??DUtf8Value@String@v8@@QAEPADXZ'},{hint:80,name:'??DUtf8Value@String@v8@@QBEPBDXZ'},{hint:81,name:'??DValue@String@v8@@QAEPAGXZ'},{hint:82,name:'??DValue@String@v8@@QBEPBGXZ'},{hint:83,name:'??_7ActivityControl@v8@@6B@'},{hint:84,name:'??_7Extension@v8@@6B@'},{hint:85,name:'??_7ExternalAsciiStringResource@String@v8@@6B@'},{hint:86,name:'??_7ExternalStringResource@String@v8@@6B@'},{hint:87,name:'??_7ExternalStringResourceBase@String@v8@@6B@'},{hint:88,name:'??_7OutputStream@v8@@6B@'},{hint:89,name:'??_7RetainedObjectInfo@v8@@6B@'},{hint:90,name:'??_7ScriptData@v8@@6B@'},{hint:91,name:'??_7StartupDataDecompressor@v8@@6B@'},{hint:92,name:'??_FLocker@v8@@QAEXXZ'},{hint:93,name:'??_FUnlocker@v8@@QAEXXZ'},{hint:94,name:'?AddGCEpilogueCallback@V8@v8@@SAXP6AXW4GCType@2@W4GCCallbackFlags@2@@Z0@Z'},{hint:95,name:'?AddGCPrologueCallback@V8@v8@@SAXP6AXW4GCType@2@W4GCCallbackFlags@2@@Z0@Z'},{hint:96,name:'?AddImplicitReferences@V8@v8@@SAXV?$Persistent@VObject@v8@@@2@PAV?$Persistent@VValue@v8@@@2@I@Z'},{hint:97,name:'?AddInstancePropertyAccessor@FunctionTemplate@v8@@AAEXV?$Handle@VString@v8@@@2@P6A?AV?$Handle@VValue@v8@@@2@V?$Local@VString@v8@@@2@ABVAccessorInfo@2@@ZP6AX1V?$Local@VValue@v8@@@2@2@ZV42@W4AccessControl@2@W4PropertyAttribute@2@@Z'},{hint:98,name:'?AddMemoryAllocationCallback@V8@v8@@SAXP6AXW4ObjectSpace@2@W4AllocationAction@2@H@Z01@Z'},{hint:99,name:'?AddMessageListener@V8@v8@@SA_NP6AXV?$Handle@VMessage@v8@@@2@V?$Handle@VValue@v8@@@2@@Z1@Z'},{hint:100,name:'?AddObjectGroup@V8@v8@@SAXPAV?$Persistent@VValue@v8@@@2@IPAVRetainedObjectInfo@2@@Z'},{hint:101,name:'?AdjustAmountOfExternalAllocatedMemory@V8@v8@@SAHH@Z'},{hint:102,name:'?AllowCodeGenerationFromStrings@Context@v8@@QAEX_N@Z'},{hint:103,name:'?AsArray@StackTrace@v8@@QAE?AV?$Local@VArray@v8@@@2@XZ'},{hint:104,name:'?BooleanValue@BooleanObject@v8@@QBE_NXZ'},{hint:105,name:'?BooleanValue@Value@v8@@QBE_NXZ'},{hint:106,name:'?Call@Debug@v8@@SA?AV?$Local@VValue@v8@@@2@V?$Handle@VFunction@v8@@@2@V?$Handle@VValue@v8@@@2@@Z'},{hint:107,name:'?Call@Function@v8@@QAE?AV?$Local@VValue@v8@@@2@V?$Handle@VObject@v8@@@2@HQAV?$Handle@VValue@v8@@@2@@Z'},{hint:108,name:'?CallAsConstructor@Object@v8@@QAE?AV?$Local@VValue@v8@@@2@HQAV?$Handle@VValue@v8@@@2@@Z'},{hint:109,name:'?CallAsFunction@Object@v8@@QAE?AV?$Local@VValue@v8@@@2@V?$Handle@VObject@v8@@@2@HQAV?$Handle@VValue@v8@@@2@@Z'},{hint:110,name:'?CanContinue@TryCatch@v8@@QBE_NXZ'},{hint:111,name:'?CanMakeExternal@String@v8@@QAE_NXZ'},{hint:112,name:'?CancelDebugBreak@Debug@v8@@SAXPAVIsolate@2@@Z'},{hint:113,name:'?CheckCast@Array@v8@@CAXPAVValue@2@@Z'},{hint:114,name:'?CheckCast@BooleanObject@v8@@CAXPAVValue@2@@Z'},{hint:115,name:'?CheckCast@Date@v8@@CAXPAVValue@2@@Z'},{hint:116,name:'?CheckCast@External@v8@@CAXPAVValue@2@@Z'},{hint:117,name:'?CheckCast@Function@v8@@CAXPAVValue@2@@Z'},{hint:118,name:'?CheckCast@Integer@v8@@CAXPAVValue@2@@Z'},{hint:119,name:'?CheckCast@Number@v8@@CAXPAVValue@2@@Z'},{hint:120,name:'?CheckCast@NumberObject@v8@@CAXPAVValue@2@@Z'},{hint:121,name:'?CheckCast@Object@v8@@CAXPAVValue@2@@Z'},{hint:122,name:'?CheckCast@RegExp@v8@@CAXPAVValue@2@@Z'},{hint:123,name:'?CheckCast@String@v8@@CAXPAVValue@2@@Z'},{hint:124,name:'?CheckCast@StringObject@v8@@CAXPAVValue@2@@Z'},{hint:125,name:'?CheckedGetInternalField@Object@v8@@AAE?AV?$Local@VValue@v8@@@2@H@Z'},{hint:126,name:'?ClearWeak@V8@v8@@CAXPAPAVObject@internal@2@@Z'},{hint:127,name:'?Clone@Object@v8@@QAE?AV?$Local@VObject@v8@@@2@XZ'},{hint:128,name:'?CloneElementAt@Array@v8@@QAE?AV?$Local@VObject@v8@@@2@I@Z'},{hint:129,name:'?Compile@Script@v8@@SA?AV?$Local@VScript@v8@@@2@V?$Handle@VString@v8@@@2@PAVScriptOrigin@2@PAVScriptData@2@0@Z'},{hint:130,name:'?Compile@Script@v8@@SA?AV?$Local@VScript@v8@@@2@V?$Handle@VString@v8@@@2@V?$Handle@VValue@v8@@@2@0@Z'},{hint:131,name:'?Concat@String@v8@@SA?AV?$Local@VString@v8@@@2@V?$Handle@VString@v8@@@2@0@Z'},{hint:132,name:'?ContextDisposedNotification@V8@v8@@SAHXZ'},{hint:133,name:'?CreateHandle@HandleScope@v8@@SAPAPAVObject@internal@2@PAV342@@Z'},{hint:134,name:'?CreateHandle@HandleScope@v8@@SAPAPAVObject@internal@2@PAVHeapObject@42@@Z'},{hint:135,name:'?CreationContext@Object@v8@@QAE?AV?$Local@VContext@v8@@@2@XZ'},{hint:136,name:'?CurrentStackTrace@StackTrace@v8@@SA?AV?$Local@VStackTrace@v8@@@2@HW4StackTraceOptions@12@@Z'},{hint:137,name:'?Data@AccessorInfo@v8@@QBE?AV?$Local@VValue@v8@@@2@XZ'},{hint:138,name:'?DateTimeConfigurationChangeNotification@Date@v8@@SAXXZ'},{hint:139,name:'?DebugBreak@Debug@v8@@SAXPAVIsolate@2@@Z'},{hint:140,name:'?DebugBreakForCommand@Debug@v8@@SAXPAVClientData@12@PAVIsolate@2@@Z'},{hint:141,name:'?Decompress@StartupDataDecompressor@v8@@QAEHXZ'},{hint:142,name:'?DefineWrapperClass@HeapProfiler@v8@@SAXGP6APAVRetainedObjectInfo@2@GV?$Handle@VValue@v8@@@2@@Z@Z'},{hint:143,name:'?Delete@CpuProfile@v8@@QAEXXZ'},{hint:144,name:'?Delete@HeapSnapshot@v8@@QAEXXZ'},{hint:145,name:'?Delete@Object@v8@@QAE_NI@Z'},{hint:146,name:'?Delete@Object@v8@@QAE_NV?$Handle@VString@v8@@@2@@Z'},{hint:147,name:'?DeleteAllProfiles@CpuProfiler@v8@@SAXXZ'},{hint:148,name:'?DeleteAllSnapshots@HeapProfiler@v8@@SAXXZ'},{hint:149,name:'?DeleteHiddenValue@Object@v8@@QAE_NV?$Handle@VString@v8@@@2@@Z'},{hint:150,name:'?DeoptimizeAll@Testing@v8@@SAXXZ'},{hint:151,name:'?DetachGlobal@Context@v8@@QAEXXZ'},{hint:152,name:'?Dispose@ExternalStringResourceBase@String@v8@@MAEXXZ'},{hint:153,name:'?Dispose@Isolate@v8@@QAEXXZ'},{hint:154,name:'?Dispose@V8@v8@@SA_NXZ'},{hint:155,name:'?DisposeGlobal@V8@v8@@CAXPAPAVObject@internal@2@@Z'},{hint:156,name:'?Empty@String@v8@@SA?AV?$Local@VString@v8@@@2@XZ'},{hint:157,name:'?EnableAgent@Debug@v8@@SA_NPBDH_N@Z'},{hint:158,name:'?EnableSlidingStateWindow@V8@v8@@SAXXZ'},{hint:159,name:'?Enter@Context@v8@@QAEXXZ'},{hint:160,name:'?Enter@Isolate@v8@@QAEXXZ'},{hint:161,name:'?Equals@Value@v8@@QBE_NV?$Handle@VValue@v8@@@2@@Z'},{hint:162,name:'?Error@Exception@v8@@SA?AV?$Local@VValue@v8@@@2@V?$Handle@VString@v8@@@2@@Z'},{hint:163,name:'?Exception@TryCatch@v8@@QBE?AV?$Local@VValue@v8@@@2@XZ'},{hint:164,name:'?Exit@Context@v8@@QAEXXZ'},{hint:165,name:'?Exit@Isolate@v8@@QAEXXZ'},{hint:166,name:'?False@v8@@YA?AV?$Handle@VBoolean@v8@@@1@XZ'},{hint:167,name:'?FindInstanceInPrototypeChain@Object@v8@@QAE?AV?$Local@VObject@v8@@@2@V?$Handle@VFunctionTemplate@v8@@@2@@Z'},{hint:168,name:'?FindProfile@CpuProfiler@v8@@SAPBVCpuProfile@2@IV?$Handle@VValue@v8@@@2@@Z'},{hint:169,name:'?FindSnapshot@HeapProfiler@v8@@SAPBVHeapSnapshot@2@I@Z'},{hint:170,name:'?ForceDelete@Object@v8@@QAE_NV?$Handle@VValue@v8@@@2@@Z'},{hint:171,name:'?ForceSet@Object@v8@@QAE_NV?$Handle@VValue@v8@@@2@0W4PropertyAttribute@2@@Z'},{hint:172,name:'?FullIsString@Value@v8@@ABE_NXZ'},{hint:173,name:'?FullUnwrap@External@v8@@CAPAXV?$Handle@VValue@v8@@@2@@Z'},{hint:174,name:'?Get@Message@v8@@QBE?AV?$Local@VString@v8@@@2@XZ'},{hint:175,name:'?Get@Object@v8@@QAE?AV?$Local@VValue@v8@@@2@I@Z'},{hint:176,name:'?Get@Object@v8@@QAE?AV?$Local@VValue@v8@@@2@V?$Handle@VValue@v8@@@2@@Z'},{hint:177,name:'?GetBottomUpRoot@CpuProfile@v8@@QBEPBVCpuProfileNode@2@XZ'},{hint:178,name:'?GetCallUid@CpuProfileNode@v8@@QBEIXZ'},{hint:179,name:'?GetCalling@Context@v8@@SA?AV?$Local@VContext@v8@@@2@XZ'},{hint:180,name:'?GetChild@CpuProfileNode@v8@@QBEPBV12@H@Z'},{hint:181,name:'?GetChild@HeapGraphNode@v8@@QBEPBVHeapGraphEdge@2@H@Z'},{hint:182,name:'?GetChildrenCount@CpuProfileNode@v8@@QBEHXZ'},{hint:183,name:'?GetChildrenCount@HeapGraphNode@v8@@QBEHXZ'},{hint:184,name:'?GetChunkSize@OutputStream@v8@@UAEHXZ'},{hint:185,name:'?GetColumn@StackFrame@v8@@QBEHXZ'},{hint:186,name:'?GetCompressedStartupData@V8@v8@@SAXPAVStartupData@2@@Z'},{hint:187,name:'?GetCompressedStartupDataAlgorithm@V8@v8@@SA?AW4CompressionAlgorithm@StartupData@2@XZ'},{hint:188,name:'?GetCompressedStartupDataCount@V8@v8@@SAHXZ'},{hint:189,name:'?GetConstructorName@Object@v8@@QAE?AV?$Local@VString@v8@@@2@XZ'},{hint:190,name:'?GetCurrent@Context@v8@@SA?AV?$Local@VContext@v8@@@2@XZ'},{hint:191,name:'?GetCurrent@Isolate@v8@@SAPAV12@XZ'},{hint:192,name:'?GetCurrentThreadId@V8@v8@@SAHXZ'},{hint:193,name:'?GetData@Context@v8@@QAE?AV?$Local@VValue@v8@@@2@XZ'},{hint:194,name:'?GetData@Isolate@v8@@QAEPAXXZ'},{hint:195,name:'?GetDebugContext@Debug@v8@@SA?AV?$Local@VContext@v8@@@2@XZ'},{hint:196,name:'?GetDominatorNode@HeapGraphNode@v8@@QBEPBV12@XZ'},{hint:197,name:'?GetElementCount@RetainedObjectInfo@v8@@UAEHXZ'},{hint:198,name:'?GetEndColumn@Message@v8@@QBEHXZ'},{hint:199,name:'?GetEndPosition@Message@v8@@QBEHXZ'},{hint:200,name:'?GetEntered@Context@v8@@SA?AV?$Local@VContext@v8@@@2@XZ'},{hint:201,name:'?GetExternalAsciiStringResource@String@v8@@QBEPAVExternalAsciiStringResource@12@XZ'},{hint:202,name:'?GetFlags@RegExp@v8@@QBE?AW4Flags@12@XZ'},{hint:203,name:'?GetFrame@StackTrace@v8@@QBE?AV?$Local@VStackFrame@v8@@@2@I@Z'},{hint:204,name:'?GetFrameCount@StackTrace@v8@@QBEHXZ'},{hint:205,name:'?GetFromNode@HeapGraphEdge@v8@@QBEPBVHeapGraphNode@2@XZ'},{hint:206,name:'?GetFunction@FunctionTemplate@v8@@QAE?AV?$Local@VFunction@v8@@@2@XZ'},{hint:207,name:'?GetFunctionName@CpuProfileNode@v8@@QBE?AV?$Handle@VString@v8@@@2@XZ'},{hint:208,name:'?GetFunctionName@StackFrame@v8@@QBE?AV?$Local@VString@v8@@@2@XZ'},{hint:209,name:'?GetHeapStatistics@V8@v8@@SAXPAVHeapStatistics@2@@Z'},{hint:210,name:'?GetHiddenValue@Object@v8@@QAE?AV?$Local@VValue@v8@@@2@V?$Handle@VString@v8@@@2@@Z'},{hint:211,name:'?GetId@HeapGraphNode@v8@@QBE_KXZ'},{hint:212,name:'?GetIdentityHash@Object@v8@@QAEHXZ'},{hint:213,name:'?GetIndexedPropertiesExternalArrayData@Object@v8@@QAEPAXXZ'},{hint:214,name:'?GetIndexedPropertiesExternalArrayDataLength@Object@v8@@QAEHXZ'},{hint:215,name:'?GetIndexedPropertiesExternalArrayDataType@Object@v8@@QAE?AW4ExternalArrayType@2@XZ'},{hint:216,name:'?GetIndexedPropertiesPixelData@Object@v8@@QAEPAEXZ'},{hint:217,name:'?GetIndexedPropertiesPixelDataLength@Object@v8@@QAEHXZ'},{hint:218,name:'?GetLineNumber@CpuProfileNode@v8@@QBEHXZ'},{hint:219,name:'?GetLineNumber@Message@v8@@QBEHXZ'},{hint:220,name:'?GetLineNumber@StackFrame@v8@@QBEHXZ'},{hint:221,name:'?GetMirror@Debug@v8@@SA?AV?$Local@VValue@v8@@@2@V?$Handle@VValue@v8@@@2@@Z'},{hint:222,name:'?GetName@Function@v8@@QBE?AV?$Handle@VValue@v8@@@2@XZ'},{hint:223,name:'?GetName@HeapGraphEdge@v8@@QBE?AV?$Handle@VValue@v8@@@2@XZ'},{hint:224,name:'?GetName@HeapGraphNode@v8@@QBE?AV?$Handle@VString@v8@@@2@XZ'},{hint:225,name:'?GetNativeFunction@Extension@v8@@UAE?AV?$Handle@VFunctionTemplate@v8@@@2@V?$Handle@VString@v8@@@2@@Z'},{hint:226,name:'?GetNode@HeapSnapshot@v8@@QBEPBVHeapGraphNode@2@H@Z'},{hint:227,name:'?GetNodeById@HeapSnapshot@v8@@QBEPBVHeapGraphNode@2@_K@Z'},{hint:228,name:'?GetNodesCount@HeapSnapshot@v8@@QBEHXZ'},{hint:229,name:'?GetOutputEncoding@OutputStream@v8@@UAE?AW4OutputEncoding@12@XZ'},{hint:230,name:'?GetOwnPropertyNames@Object@v8@@QAE?AV?$Local@VArray@v8@@@2@XZ'},{hint:231,name:'?GetProfile@CpuProfiler@v8@@SAPBVCpuProfile@2@HV?$Handle@VValue@v8@@@2@@Z'},{hint:232,name:'?GetProfilesCount@CpuProfiler@v8@@SAHXZ'},{hint:233,name:'?GetPropertyAttributes@Object@v8@@QAE?AW4PropertyAttribute@2@V?$Handle@VValue@v8@@@2@@Z'},{hint:234,name:'?GetPropertyNames@Object@v8@@QAE?AV?$Local@VArray@v8@@@2@XZ'},{hint:235,name:'?GetPrototype@Object@v8@@QAE?AV?$Local@VValue@v8@@@2@XZ'},{hint:236,name:'?GetRealNamedProperty@Object@v8@@QAE?AV?$Local@VValue@v8@@@2@V?$Handle@VString@v8@@@2@@Z'},{hint:237,name:'?GetRealNamedPropertyInPrototypeChain@Object@v8@@QAE?AV?$Local@VValue@v8@@@2@V?$Handle@VString@v8@@@2@@Z'},{hint:238,name:'?GetRetainedSize@HeapGraphNode@v8@@QBEH_N@Z'},{hint:239,name:'?GetRetainer@HeapGraphNode@v8@@QBEPBVHeapGraphEdge@2@H@Z'},{hint:240,name:'?GetRetainersCount@HeapGraphNode@v8@@QBEHXZ'},{hint:241,name:'?GetRoot@HeapSnapshot@v8@@QBEPBVHeapGraphNode@2@XZ'},{hint:242,name:'?GetScriptData@Message@v8@@QBE?AV?$Handle@VValue@v8@@@2@XZ'},{hint:243,name:'?GetScriptLineNumber@Function@v8@@QBEHXZ'},{hint:244,name:'?GetScriptName@StackFrame@v8@@QBE?AV?$Local@VString@v8@@@2@XZ'},{hint:245,name:'?GetScriptNameOrSourceURL@StackFrame@v8@@QBE?AV?$Local@VString@v8@@@2@XZ'},{hint:246,name:'?GetScriptOrigin@Function@v8@@QBE?AVScriptOrigin@2@XZ'},{hint:247,name:'?GetScriptResourceName@CpuProfileNode@v8@@QBE?AV?$Handle@VString@v8@@@2@XZ'},{hint:248,name:'?GetScriptResourceName@Message@v8@@QBE?AV?$Handle@VValue@v8@@@2@XZ'},{hint:249,name:'?GetSecurityToken@Context@v8@@QAE?AV?$Handle@VValue@v8@@@2@XZ'},{hint:250,name:'?GetSelfSamplesCount@CpuProfileNode@v8@@QBENXZ'},{hint:251,name:'?GetSelfSize@HeapGraphNode@v8@@QBEHXZ'},{hint:252,name:'?GetSelfTime@CpuProfileNode@v8@@QBENXZ'},{hint:253,name:'?GetSizeInBytes@RetainedObjectInfo@v8@@UAEHXZ'},{hint:254,name:'?GetSnapshot@HeapProfiler@v8@@SAPBVHeapSnapshot@2@H@Z'},{hint:255,name:'?GetSnapshotsCount@HeapProfiler@v8@@SAHXZ'},{hint:256,name:'?GetSource@RegExp@v8@@QBE?AV?$Local@VString@v8@@@2@XZ'},{hint:257,name:'?GetSourceLine@Message@v8@@QBE?AV?$Local@VString@v8@@@2@XZ'},{hint:258,name:'?GetStackTrace@Message@v8@@QBE?AV?$Handle@VStackTrace@v8@@@2@XZ'},{hint:259,name:'?GetStartColumn@Message@v8@@QBEHXZ'},{hint:260,name:'?GetStartPosition@Message@v8@@QBEHXZ'},{hint:261,name:'?GetStressRuns@Testing@v8@@SAHXZ'},{hint:262,name:'?GetTitle@CpuProfile@v8@@QBE?AV?$Handle@VString@v8@@@2@XZ'},{hint:263,name:'?GetTitle@HeapSnapshot@v8@@QBE?AV?$Handle@VString@v8@@@2@XZ'},{hint:264,name:'?GetToNode@HeapGraphEdge@v8@@QBEPBVHeapGraphNode@2@XZ'},{hint:265,name:'?GetTopDownRoot@CpuProfile@v8@@QBEPBVCpuProfileNode@2@XZ'},{hint:266,name:'?GetTotalSamplesCount@CpuProfileNode@v8@@QBENXZ'},{hint:267,name:'?GetTotalTime@CpuProfileNode@v8@@QBENXZ'},{hint:268,name:'?GetType@HeapGraphEdge@v8@@QBE?AW4Type@12@XZ'},{hint:269,name:'?GetType@HeapGraphNode@v8@@QBE?AW4Type@12@XZ'},{hint:270,name:'?GetType@HeapSnapshot@v8@@QBE?AW4Type@12@XZ'},{hint:271,name:'?GetUid@CpuProfile@v8@@QBEIXZ'},{hint:272,name:'?GetUid@HeapSnapshot@v8@@QBEIXZ'},{hint:273,name:'?GetVersion@V8@v8@@SAPBDXZ'},{hint:274,name:'?Global@Context@v8@@QAE?AV?$Local@VObject@v8@@@2@XZ'},{hint:275,name:'?GlobalizeReference@V8@v8@@CAPAPAVObject@internal@2@PAPAV342@@Z'},{hint:276,name:'?Has@Object@v8@@QAE_NI@Z'},{hint:277,name:'?Has@Object@v8@@QAE_NV?$Handle@VString@v8@@@2@@Z'},{hint:278,name:'?HasCaught@TryCatch@v8@@QBE_NXZ'},{hint:279,name:'?HasIndexedLookupInterceptor@Object@v8@@QAE_NXZ'},{hint:280,name:'?HasIndexedPropertiesInExternalArrayData@Object@v8@@QAE_NXZ'},{hint:281,name:'?HasIndexedPropertiesInPixelData@Object@v8@@QAE_NXZ'},{hint:282,name:'?HasInstance@FunctionTemplate@v8@@QAE_NV?$Handle@VValue@v8@@@2@@Z'},{hint:283,name:'?HasNamedLookupInterceptor@Object@v8@@QAE_NXZ'},{hint:284,name:'?HasOutOfMemoryException@Context@v8@@QAE_NXZ'},{hint:285,name:'?HasOwnProperty@Object@v8@@QAE_NV?$Handle@VString@v8@@@2@@Z'},{hint:286,name:'?HasRealIndexedProperty@Object@v8@@QAE_NI@Z'},{hint:287,name:'?HasRealNamedCallbackProperty@Object@v8@@QAE_NV?$Handle@VString@v8@@@2@@Z'},{hint:288,name:'?HasRealNamedProperty@Object@v8@@QAE_NV?$Handle@VString@v8@@@2@@Z'},{hint:289,name:'?Holder@AccessorInfo@v8@@QBE?AV?$Local@VObject@v8@@@2@XZ'},{hint:290,name:'?Id@Script@v8@@QAE?AV?$Local@VValue@v8@@@2@XZ'},{hint:291,name:'?IdleNotification@V8@v8@@SA_NXZ'},{hint:292,name:'?IgnoreOutOfMemoryException@V8@v8@@SAXXZ'},{hint:293,name:'?InContext@Context@v8@@SA_NXZ'},{hint:294,name:'?Inherit@FunctionTemplate@v8@@QAEXV?$Handle@VFunctionTemplate@v8@@@2@@Z'},{hint:295,name:'?Initialize@Data@HandleScope@v8@@QAEXXZ'},{hint:296,name:'?Initialize@V8@v8@@SA_NXZ'},{hint:297,name:'?InstanceTemplate@FunctionTemplate@v8@@QAE?AV?$Local@VObjectTemplate@v8@@@2@XZ'},{hint:298,name:'?Int32Value@Value@v8@@QBEHXZ'},{hint:299,name:'?IntegerValue@Value@v8@@QBE_JXZ'},{hint:300,name:'?InternalFieldCount@Object@v8@@QAEHXZ'},{hint:301,name:'?InternalFieldCount@ObjectTemplate@v8@@QAEHXZ'},{hint:302,name:'?IsActive@Locker@v8@@SA_NXZ'},{hint:303,name:'?IsArray@Value@v8@@QBE_NXZ'},{hint:304,name:'?IsBoolean@Value@v8@@QBE_NXZ'},{hint:305,name:'?IsBooleanObject@Value@v8@@QBE_NXZ'},{hint:306,name:'?IsCallable@Object@v8@@QAE_NXZ'},{hint:307,name:'?IsConstructor@StackFrame@v8@@QBE_NXZ'},{hint:308,name:'?IsDate@Value@v8@@QBE_NXZ'},{hint:309,name:'?IsDead@V8@v8@@SA_NXZ'},{hint:310,name:'?IsDirty@Object@v8@@QAE_NXZ'},{hint:311,name:'?IsEval@StackFrame@v8@@QBE_NXZ'},{hint:312,name:'?IsExecutionTerminating@V8@v8@@SA_NPAVIsolate@2@@Z'},{hint:313,name:'?IsExternal@String@v8@@QBE_NXZ'},{hint:314,name:'?IsExternal@Value@v8@@QBE_NXZ'},{hint:315,name:'?IsExternalAscii@String@v8@@QBE_NXZ'},{hint:316,name:'?IsFalse@Value@v8@@QBE_NXZ'},{hint:317,name:'?IsFunction@Value@v8@@QBE_NXZ'},{hint:318,name:'?IsGlobalNearDeath@V8@v8@@CA_NPAPAVObject@internal@2@@Z'},{hint:319,name:'?IsGlobalWeak@V8@v8@@CA_NPAPAVObject@internal@2@@Z'},{hint:320,name:'?IsInt32@Value@v8@@QBE_NXZ'},{hint:321,name:'?IsLocked@Locker@v8@@SA_NPAVIsolate@2@@Z'},{hint:322,name:'?IsNativeError@Value@v8@@QBE_NXZ'},{hint:323,name:'?IsNull@Value@v8@@QBE_NXZ'},{hint:324,name:'?IsNumber@Value@v8@@QBE_NXZ'},{hint:325,name:'?IsNumberObject@Value@v8@@QBE_NXZ'},{hint:326,name:'?IsObject@Value@v8@@QBE_NXZ'},{hint:327,name:'?IsProfilerPaused@V8@v8@@SA_NXZ'},{hint:328,name:'?IsRegExp@Value@v8@@QBE_NXZ'},{hint:329,name:'?IsStringObject@Value@v8@@QBE_NXZ'},{hint:330,name:'?IsTrue@Value@v8@@QBE_NXZ'},{hint:331,name:'?IsUint32@Value@v8@@QBE_NXZ'},{hint:332,name:'?IsUndefined@Value@v8@@QBE_NXZ'},{hint:333,name:'?Leave@HandleScope@v8@@AAEXXZ'},{hint:334,name:'?Length@Array@v8@@QBEIXZ'},{hint:335,name:'?Length@String@v8@@QBEHXZ'},{hint:336,name:'?LowMemoryNotification@V8@v8@@SAXXZ'},{hint:337,name:'?MakeExternal@String@v8@@QAE_NPAVExternalAsciiStringResource@12@@Z'},{hint:338,name:'?MakeExternal@String@v8@@QAE_NPAVExternalStringResource@12@@Z'},{hint:339,name:'?MakeWeak@V8@v8@@CAXPAPAVObject@internal@2@PAXP6AXV?$Persistent@VValue@v8@@@2@1@Z@Z'},{hint:340,name:'?MarkAsUndetectable@ObjectTemplate@v8@@QAEXXZ'},{hint:341,name:'?MarkIndependent@V8@v8@@CAXPAPAVObject@internal@2@@Z'},{hint:342,name:'?Message@TryCatch@v8@@QBE?AV?$Local@VMessage@v8@@@2@XZ'},{hint:343,name:'?New@Array@v8@@SA?AV?$Local@VArray@v8@@@2@H@Z'},{hint:344,name:'?New@BooleanObject@v8@@SA?AV?$Local@VValue@v8@@@2@_N@Z'},{hint:345,name:'?New@Context@v8@@SA?AV?$Persistent@VContext@v8@@@2@PAVExtensionConfiguration@2@V?$Handle@VObjectTemplate@v8@@@2@V?$Handle@VValue@v8@@@2@@Z'},{hint:346,name:'?New@Date@v8@@SA?AV?$Local@VValue@v8@@@2@N@Z'},{hint:347,name:'?New@External@v8@@SA?AV?$Local@VExternal@v8@@@2@PAX@Z'},{hint:348,name:'?New@FunctionTemplate@v8@@SA?AV?$Local@VFunctionTemplate@v8@@@2@P6A?AV?$Handle@VValue@v8@@@2@ABVArguments@2@@ZV42@V?$Handle@VSignature@v8@@@2@@Z'},{hint:349,name:'?New@Integer@v8@@SA?AV?$Local@VInteger@v8@@@2@H@Z'},{hint:350,name:'?New@Isolate@v8@@SAPAV12@XZ'},{hint:351,name:'?New@Number@v8@@SA?AV?$Local@VNumber@v8@@@2@N@Z'},{hint:352,name:'?New@NumberObject@v8@@SA?AV?$Local@VValue@v8@@@2@N@Z'},{hint:353,name:'?New@Object@v8@@SA?AV?$Local@VObject@v8@@@2@XZ'},{hint:354,name:'?New@ObjectTemplate@v8@@CA?AV?$Local@VObjectTemplate@v8@@@2@V?$Handle@VFunctionTemplate@v8@@@2@@Z'},{hint:355,name:'?New@ObjectTemplate@v8@@SA?AV?$Local@VObjectTemplate@v8@@@2@XZ'},{hint:356,name:'?New@RegExp@v8@@SA?AV?$Local@VRegExp@v8@@@2@V?$Handle@VString@v8@@@2@W4Flags@12@@Z'},{hint:357,name:'?New@Script@v8@@SA?AV?$Local@VScript@v8@@@2@V?$Handle@VString@v8@@@2@PAVScriptOrigin@2@PAVScriptData@2@0@Z'},{hint:358,name:'?New@Script@v8@@SA?AV?$Local@VScript@v8@@@2@V?$Handle@VString@v8@@@2@V?$Handle@VValue@v8@@@2@@Z'},{hint:359,name:'?New@ScriptData@v8@@SAPAV12@PBDH@Z'},{hint:360,name:'?New@Signature@v8@@SA?AV?$Local@VSignature@v8@@@2@V?$Handle@VFunctionTemplate@v8@@@2@HQAV42@@Z'},{hint:361,name:'?New@String@v8@@SA?AV?$Local@VString@v8@@@2@PBDH@Z'},{hint:362,name:'?New@String@v8@@SA?AV?$Local@VString@v8@@@2@PBGH@Z'},{hint:363,name:'?New@StringObject@v8@@SA?AV?$Local@VValue@v8@@@2@V?$Handle@VString@v8@@@2@@Z'},{hint:364,name:'?New@TypeSwitch@v8@@SA?AV?$Local@VTypeSwitch@v8@@@2@HQAV?$Handle@VFunctionTemplate@v8@@@2@@Z'},{hint:365,name:'?New@TypeSwitch@v8@@SA?AV?$Local@VTypeSwitch@v8@@@2@V?$Handle@VFunctionTemplate@v8@@@2@@Z'},{hint:366,name:'?NewExternal@String@v8@@SA?AV?$Local@VString@v8@@@2@PAVExternalAsciiStringResource@12@@Z'},{hint:367,name:'?NewExternal@String@v8@@SA?AV?$Local@VString@v8@@@2@PAVExternalStringResource@12@@Z'},{hint:368,name:'?NewFromUnsigned@Integer@v8@@SA?AV?$Local@VInteger@v8@@@2@I@Z'},{hint:369,name:'?NewInstance@Function@v8@@QBE?AV?$Local@VObject@v8@@@2@HQAV?$Handle@VValue@v8@@@2@@Z'},{hint:370,name:'?NewInstance@Function@v8@@QBE?AV?$Local@VObject@v8@@@2@XZ'},{hint:371,name:'?NewInstance@ObjectTemplate@v8@@QAE?AV?$Local@VObject@v8@@@2@XZ'},{hint:372,name:'?NewSymbol@String@v8@@SA?AV?$Local@VString@v8@@@2@PBDH@Z'},{hint:373,name:'?NewUndetectable@String@v8@@SA?AV?$Local@VString@v8@@@2@PBDH@Z'},{hint:374,name:'?NewUndetectable@String@v8@@SA?AV?$Local@VString@v8@@@2@PBGH@Z'},{hint:375,name:'?Null@v8@@YA?AV?$Handle@VPrimitive@v8@@@1@XZ'},{hint:376,name:'?NumberOfHandles@HandleScope@v8@@SAHXZ'},{hint:377,name:'?NumberValue@Date@v8@@QBENXZ'},{hint:378,name:'?NumberValue@NumberObject@v8@@QBENXZ'},{hint:379,name:'?NumberValue@Value@v8@@QBENXZ'},{hint:380,name:'?ObjectProtoToString@Object@v8@@QAE?AV?$Local@VString@v8@@@2@XZ'},{hint:381,name:'?PauseProfiler@V8@v8@@SAXXZ'},{hint:382,name:'?PreCompile@ScriptData@v8@@SAPAV12@PBDH@Z'},{hint:383,name:'?PreCompile@ScriptData@v8@@SAPAV12@V?$Handle@VString@v8@@@2@@Z'},{hint:384,name:'?PrepareStressRun@Testing@v8@@SAXH@Z'},{hint:385,name:'?PrintCurrentStackTrace@Message@v8@@SAXPAU_iobuf@@@Z'},{hint:386,name:'?ProcessDebugMessages@Debug@v8@@SAXXZ'},{hint:387,name:'?PrototypeTemplate@FunctionTemplate@v8@@QAE?AV?$Local@VObjectTemplate@v8@@@2@XZ'},{hint:388,name:'?RangeError@Exception@v8@@SA?AV?$Local@VValue@v8@@@2@V?$Handle@VString@v8@@@2@@Z'},{hint:389,name:'?RawClose@HandleScope@v8@@AAEPAPAVObject@internal@2@PAPAV342@@Z'},{hint:390,name:'?ReThrow@TryCatch@v8@@QAE?AV?$Handle@VValue@v8@@@2@XZ'},{hint:391,name:'?ReadOnlyPrototype@FunctionTemplate@v8@@QAEXXZ'},{hint:392,name:'?ReattachGlobal@Context@v8@@QAEXV?$Handle@VObject@v8@@@2@@Z'},{hint:393,name:'?ReferenceError@Exception@v8@@SA?AV?$Local@VValue@v8@@@2@V?$Handle@VString@v8@@@2@@Z'},{hint:394,name:'?RegisterExtension@v8@@YAXPAVExtension@1@@Z'},{hint:395,name:'?RemoveGCEpilogueCallback@V8@v8@@SAXP6AXW4GCType@2@W4GCCallbackFlags@2@@Z@Z'},{hint:396,name:'?RemoveGCPrologueCallback@V8@v8@@SAXP6AXW4GCType@2@W4GCCallbackFlags@2@@Z@Z'},{hint:397,name:'?RemoveMemoryAllocationCallback@V8@v8@@SAXP6AXW4ObjectSpace@2@W4AllocationAction@2@H@Z@Z'},{hint:398,name:'?RemoveMessageListeners@V8@v8@@SAXP6AXV?$Handle@VMessage@v8@@@2@V?$Handle@VValue@v8@@@2@@Z@Z'},{hint:399,name:'?Reset@TryCatch@v8@@QAEXXZ'},{hint:400,name:'?ResumeProfiler@V8@v8@@SAXXZ'},{hint:401,name:'?Run@Script@v8@@QAE?AV?$Local@VValue@v8@@@2@XZ'},{hint:402,name:'?SendCommand@Debug@v8@@SAXPBGHPAVClientData@12@PAVIsolate@2@@Z'},{hint:403,name:'?Serialize@HeapSnapshot@v8@@QBEXPAVOutputStream@2@W4SerializationFormat@12@@Z'},{hint:404,name:'?Set@Object@v8@@QAE_NIV?$Handle@VValue@v8@@@2@@Z'},{hint:405,name:'?Set@Object@v8@@QAE_NV?$Handle@VValue@v8@@@2@0W4PropertyAttribute@2@@Z'},{hint:406,name:'?Set@Template@v8@@QAEXPBDV?$Handle@VData@v8@@@2@@Z'},{hint:407,name:'?Set@Template@v8@@QAEXV?$Handle@VString@v8@@@2@V?$Handle@VData@v8@@@2@W4PropertyAttribute@2@@Z'},{hint:408,name:'?SetAccessCheckCallbacks@ObjectTemplate@v8@@QAEXP6A_NV?$Local@VObject@v8@@@2@V?$Local@VValue@v8@@@2@W4AccessType@2@1@ZP6A_N0I21@ZV?$Handle@VValue@v8@@@2@_N@Z'},{hint:409,name:'?SetAccessor@Object@v8@@QAE_NV?$Handle@VString@v8@@@2@P6A?AV?$Handle@VValue@v8@@@2@V?$Local@VString@v8@@@2@ABVAccessorInfo@2@@ZP6AX1V?$Local@VValue@v8@@@2@2@ZV42@W4AccessControl@2@W4PropertyAttribute@2@@Z'},{hint:410,name:'?SetAccessor@ObjectTemplate@v8@@QAEXV?$Handle@VString@v8@@@2@P6A?AV?$Handle@VValue@v8@@@2@V?$Local@VString@v8@@@2@ABVAccessorInfo@2@@ZP6AX1V?$Local@VValue@v8@@@2@2@ZV42@W4AccessControl@2@W4PropertyAttribute@2@@Z'},{hint:411,name:'?SetAddHistogramSampleFunction@V8@v8@@SAXP6AXPAXH@Z@Z'},{hint:412,name:'?SetAllowCodeGenerationFromStringsCallback@V8@v8@@SAXP6A_NV?$Local@VContext@v8@@@2@@Z@Z'},{hint:413,name:'?SetCallAsFunctionHandler@ObjectTemplate@v8@@QAEXP6A?AV?$Handle@VValue@v8@@@2@ABVArguments@2@@ZV32@@Z'},{hint:414,name:'?SetCallHandler@FunctionTemplate@v8@@QAEXP6A?AV?$Handle@VValue@v8@@@2@ABVArguments@2@@ZV32@@Z'},{hint:415,name:'?SetCaptureMessage@TryCatch@v8@@QAEX_N@Z'},{hint:416,name:'?SetCaptureStackTraceForUncaughtExceptions@V8@v8@@SAX_NHW4StackTraceOptions@StackTrace@2@@Z'},{hint:417,name:'?SetClassName@FunctionTemplate@v8@@QAEXV?$Handle@VString@v8@@@2@@Z'},{hint:418,name:'?SetCounterFunction@V8@v8@@SAXP6APAHPBD@Z@Z'},{hint:419,name:'?SetCreateHistogramFunction@V8@v8@@SAXP6APAXPBDHHI@Z@Z'},{hint:420,name:'?SetData@Context@v8@@QAEXV?$Handle@VString@v8@@@2@@Z'},{hint:421,name:'?SetData@Isolate@v8@@QAEXPAX@Z'},{hint:422,name:'?SetData@Script@v8@@QAEXV?$Handle@VString@v8@@@2@@Z'},{hint:423,name:'?SetDebugEventListener2@Debug@v8@@SA_NP6AXABVEventDetails@12@@ZV?$Handle@VValue@v8@@@2@@Z'},{hint:424,name:'?SetDebugEventListener@Debug@v8@@SA_NP6AXW4DebugEvent@2@V?$Handle@VObject@v8@@@2@1V?$Handle@VValue@v8@@@2@@Z2@Z'},{hint:425,name:'?SetDebugEventListener@Debug@v8@@SA_NV?$Handle@VObject@v8@@@2@V?$Handle@VValue@v8@@@2@@Z'},{hint:426,name:'?SetDebugMessageDispatchHandler@Debug@v8@@SAXP6AXXZ_N@Z'},{hint:427,name:'?SetDecompressedStartupData@V8@v8@@SAXPAVStartupData@2@@Z'},{hint:428,name:'?SetEntropySource@V8@v8@@SAXP6A_NPAEI@Z@Z'},{hint:429,name:'?SetFailedAccessCheckCallbackFunction@V8@v8@@SAXP6AXV?$Local@VObject@v8@@@2@W4AccessType@2@V?$Local@VValue@v8@@@2@@Z@Z'},{hint:430,name:'?SetFatalErrorHandler@V8@v8@@SAXP6AXPBD0@Z@Z'},{hint:431,name:'?SetFlagsFromCommandLine@V8@v8@@SAXPAHPAPAD_N@Z'},{hint:432,name:'?SetFlagsFromString@V8@v8@@SAXPBDH@Z'},{hint:433,name:'?SetGlobalGCEpilogueCallback@V8@v8@@SAXP6AXXZ@Z'},{hint:434,name:'?SetGlobalGCPrologueCallback@V8@v8@@SAXP6AXXZ@Z'},{hint:435,name:'?SetHiddenPrototype@FunctionTemplate@v8@@QAEX_N@Z'},{hint:436,name:'?SetHiddenValue@Object@v8@@QAE_NV?$Handle@VString@v8@@@2@V?$Handle@VValue@v8@@@2@@Z'},{hint:437,name:'?SetHostDispatchHandler@Debug@v8@@SAXP6AXXZH@Z'},{hint:438,name:'?SetIndexedInstancePropertyHandler@FunctionTemplate@v8@@AAEXP6A?AV?$Handle@VValue@v8@@@2@IABVAccessorInfo@2@@ZP6A?AV32@IV?$Local@VValue@v8@@@2@0@ZP6A?AV?$Handle@VInteger@v8@@@2@I0@ZP6A?AV?$Handle@VBoolean@v8@@@2@I0@ZP6A?AV?$Handle@VArray@v8@@@2@0@ZV32@@Z'},{hint:439,name:'?SetIndexedPropertiesToExternalArrayData@Object@v8@@QAEXPAXW4ExternalArrayType@2@H@Z'},{hint:440,name:'?SetIndexedPropertiesToPixelData@Object@v8@@QAEXPAEH@Z'},{hint:441,name:'?SetIndexedPropertyHandler@ObjectTemplate@v8@@QAEXP6A?AV?$Handle@VValue@v8@@@2@IABVAccessorInfo@2@@ZP6A?AV32@IV?$Local@VValue@v8@@@2@0@ZP6A?AV?$Handle@VInteger@v8@@@2@I0@ZP6A?AV?$Handle@VBoolean@v8@@@2@I0@ZP6A?AV?$Handle@VArray@v8@@@2@0@ZV32@@Z'},{hint:442,name:'?SetInstanceCallAsFunctionHandler@FunctionTemplate@v8@@AAEXP6A?AV?$Handle@VValue@v8@@@2@ABVArguments@2@@ZV32@@Z'},{hint:443,name:'?SetInternalField@Object@v8@@QAEXHV?$Handle@VValue@v8@@@2@@Z'},{hint:444,name:'?SetInternalFieldCount@ObjectTemplate@v8@@QAEXH@Z'},{hint:445,name:'?SetMessageHandler2@Debug@v8@@SAXP6AXABVMessage@12@@Z@Z'},{hint:446,name:'?SetMessageHandler@Debug@v8@@SAXP6AXPBGHPAVClientData@12@@Z_N@Z'},{hint:447,name:'?SetName@Function@v8@@QAEXV?$Handle@VString@v8@@@2@@Z'},{hint:448,name:'?SetNamedInstancePropertyHandler@FunctionTemplate@v8@@AAEXP6A?AV?$Handle@VValue@v8@@@2@V?$Local@VString@v8@@@2@ABVAccessorInfo@2@@ZP6A?AV32@0V?$Local@VValue@v8@@@2@1@ZP6A?AV?$Handle@VInteger@v8@@@2@01@ZP6A?AV?$Handle@VBoolean@v8@@@2@01@ZP6A?AV?$Handle@VArray@vлллллллллллллллллллллллллллллллллллллллллллллллллллллллллллллллллллллллллллллллллллллллллллллллллллллллллллллллллллллллллллллллллллллллллллллллллллллллллллллллллллллллллллллллллллллллллллллллллллллллллллллллллллллллллллллллллллллллллллллллллллллллллллллллллллллллллллллллллллллллллллллллллллллллллллллллллллллллллллллллллллллллллллллллллллллллллллллллллллллллллллллллллллллллллллллллллллллллллллллллллллллллллллллллллллллллллллллллллллллллллллллллллллллллллллллллллллллллллллллллллллллллллллллллллллллллллллллллллллллллллллллллллллллллллллллллллллллллллллллллллллллллллллллллллллллллллллллллллллллллллллллллллллллллллллллллллллллллллллллллллллллллллллллллллллллллллллллллллллллллллллллллллллллллллллллллллллллллллллллллллллллллллллллллллллллллллллл,{hint:449,name:'?SetNamedPropertyHandler@ObjectTemplate@v8@@QAEXP6A?AV?$Handle@VValue@v8@@@2@V?$Local@VString@v8@@@2@ABVAccessorInfo@2@@ZP6A?AV32@0V?$Local@VValue@v8@@@2@1@ZP6A?AV?$Handle@VInteger@v8@@@2@01@ZP6A?AV?$Handle@VBoolean@v8@@@2@01@ZP6A?AV?$Handle@VArray@v8@@@2@1@ZVлллллллллллллллллллллллллллллллллллллллллллллллллллллллллллллллллллллллллллллллллллллллллллллллллллллллллллллллллллллллллллллллллллллллллллллллллллллллллллллллллллллллллллллллллллллллллллллллллллллллллллллллллллллллллллллллллллллллллллллллллллллллллллллллллллллллллллллллллллллллллллллллллллллллллллллллллллллллллллллллллллллллллллллллллллллллллллллллллллллллллллллллллллллллллллллллллллллллллллллллллллллллллллллллллллллллллллллллллллллллллллллллллллллллллллллллллллллллллллллллллллллллллллллллллллллллллллллллллллллллллллллллллллллллллллллллллллллллллллллллллллллллллллллллллллллллллллллллллллллллллллллллллллллллллллллллллллллллллллллллллллллллллллллллллллллллллллллллллллллллллллллллллллллллллллллллллллллллллллллллллллллллллллллллллллллллллллл,{hint:450,name:'?SetPointerInInternalField@Object@v8@@QAEXHPAX@Z'},{hint:451,name:'?SetPrototype@Object@v8@@QAE_NV?$Handle@VValue@v8@@@2@@Z'},{hint:452,name:'?SetResourceConstraints@v8@@YA_NPAVResourceConstraints@1@@Z'},{hint:453,name:'?SetSecurityToken@Context@v8@@QAEXV?$Handle@VValue@v8@@@2@@Z'},{hint:454,name:'?SetStressRunType@Testing@v8@@SAXW4StressType@12@@Z'},{hint:455,name:'?SetVerbose@TryCatch@v8@@QAEX_N@Z'},{hint:456,name:'?SetWrapperClassId@V8@v8@@CAXPAPAVObject@internal@2@G@Z'},{hint:457,name:'?SlowGetPointerFromInternalField@Object@v8@@AAEPAXH@Z'},{hint:458,name:'?StackTrace@TryCatch@v8@@QBE?AV?$Local@VValue@v8@@@2@XZ'},{hint:459,name:'?StartPreemption@Locker@v8@@SAXH@Z'},{hint:460,name:'?StartProfiling@CpuProfiler@v8@@SAXV?$Handle@VString@v8@@@2@@Z'},{hint:461,name:'?StopPreemption@Locker@v8@@SAXXZ'},{hint:462,name:'?StopProfiling@CpuProfiler@v8@@SAPBVCpuProfile@2@V?$Handle@VString@v8@@@2@V?$Handle@VValue@v8@@@2@@Z'},{hint:463,name:'?StrictEquals@Value@v8@@QBE_NV?$Handle@VValue@v8@@@2@@Z'},{hint:464,name:'?StringValue@StringObject@v8@@QBE?AV?$Local@VString@v8@@@2@XZ'},{hint:465,name:'?SyntaxError@Exception@v8@@SA?AV?$Local@VValue@v8@@@2@V?$Handle@VString@v8@@@2@@Z'},{hint:466,name:'?TakeSnapshot@HeapProfiler@v8@@SAPBVHeapSnapshot@2@V?$Handle@VString@v8@@@2@W4Type@32@PAVActivityControl@2@@Z'},{hint:467,name:'?TerminateExecution@V8@v8@@SAXH@Z'},{hint:468,name:'?TerminateExecution@V8@v8@@SAXPAVIsolate@2@@Z'},{hint:469,name:'?This@AccessorInfo@v8@@QBE?AV?$Local@VObject@v8@@@2@XZ'},{hint:470,name:'?ThrowException@v8@@YA?AV?$Handle@VValue@v8@@@1@V21@@Z'},{hint:471,name:'?ToArrayIndex@Value@v8@@QBE?AV?$Local@VUint32@v8@@@2@XZ'},{hint:472,name:'?ToBoolean@Value@v8@@QBE?AV?$Local@VBoolean@v8@@@2@XZ'},{hint:473,name:'?ToDetailString@Value@v8@@QBE?AV?$Local@VString@v8@@@2@XZ'},{hint:474,name:'?ToInt32@Value@v8@@QBE?AV?$Local@VInt32@v8@@@2@XZ'},{hint:475,name:'?ToInteger@Value@v8@@QBE?AV?$Local@VInteger@v8@@@2@XZ'},{hint:476,name:'?ToNumber@Value@v8@@QBE?AV?$Local@VNumber@v8@@@2@XZ'},{hint:477,name:'?ToObject@Value@v8@@QBE?AV?$Local@VObject@v8@@@2@XZ'},{hint:478,name:'?ToString@Value@v8@@QBE?AV?$Local@VString@v8@@@2@XZ'},{hint:479,name:'?ToUint32@Value@v8@@QBE?AV?$Local@VUint32@v8@@@2@XZ'},{hint:480,name:'?True@v8@@YA?AV?$Handle@VBoolean@v8@@@1@XZ'},{hint:481,name:'?TurnOnAccessCheck@Object@v8@@QAEXXZ'},{hint:482,name:'?TypeError@Exception@v8@@SA?AV?$Local@VValue@v8@@@2@V?$Handle@VString@v8@@@2@@Z'},{hint:483,name:'?Uint32Value@Value@v8@@QBEIXZ'},{hint:484,name:'?Undefined@v8@@YA?AV?$Handle@VPrimitive@v8@@@1@XZ'},{hint:485,name:'?UseDefaultSecurityToken@Context@v8@@QAEXXZ'},{hint:486,name:'?Utf8Length@String@v8@@QBEHXZ'},{hint:487,name:'?Value@Boolean@v8@@QBE_NXZ'},{hint:488,name:'?Value@External@v8@@QBEPAXXZ'},{hint:489,name:'?Value@Int32@v8@@QBEHXZ'},{hint:490,name:'?Value@Integer@v8@@QBE_JXZ'},{hint:491,name:'?Value@Number@v8@@QBENXZ'},{hint:492,name:'?Value@Uint32@v8@@QBEIXZ'},{hint:493,name:'?VerifyExternalStringResource@String@v8@@ABEXPAVExternalStringResource@12@@Z'},{hint:494,name:'?Wrap@External@v8@@SA?AV?$Local@VValue@v8@@@2@PAX@Z'},{hint:495,name:'?Write@String@v8@@QBEHPAGHHH@Z'},{hint:496,name:'?WriteAscii@String@v8@@QBEHPADHHH@Z'},{hint:497,name:'?WriteUtf8@String@v8@@QBEHPADHPAHH@Z'},{hint:498,name:'?active_@Locker@v8@@0_NA'},{hint:499,name:'?auto_enable@Extension@v8@@QAE_NXZ'},{hint:500,name:'?dependencies@Extension@v8@@QAEPAPBDXZ'},{hint:501,name:'?dependency_count@Extension@v8@@QAEHXZ'},{hint:502,name:'?heap_size_limit@HeapStatistics@v8@@QAEIXZ'},{hint:503,name:'?kLineOffsetNotFound@Function@v8@@2HB'},{hint:504,name:'?kNoColumnInfo@Message@v8@@2HB'},{hint:505,name:'?kNoLineNumberInfo@CpuProfileNode@v8@@2HB'},{hint:506,name:'?kNoLineNumberInfo@Message@v8@@2HB'},{hint:507,name:'?kPersistentHandleNoClassId@HeapProfiler@v8@@2GB'},{hint:508,name:'?length@AsciiValue@String@v8@@QBEHXZ'},{hint:509,name:'?length@Utf8Value@String@v8@@QBEHXZ'},{hint:510,name:'?length@Value@String@v8@@QBEHXZ'},{hint:511,name:'?match@TypeSwitch@v8@@QAEHV?$Handle@VValue@v8@@@2@@Z'},{hint:512,name:'?max_executable_size@ResourceConstraints@v8@@QAEHXZ'},{hint:513,name:'?max_old_space_size@ResourceConstraints@v8@@QBEHXZ'},{hint:514,name:'?max_young_space_size@ResourceConstraints@v8@@QBEHXZ'},{hint:515,name:'?name@Extension@v8@@QAEPBDXZ'},{hint:516,name:'?set_auto_enable@Extension@v8@@QAEX_N@Z'},{hint:517,name:'?set_heap_size_limit@HeapStatistics@v8@@AAEXI@Z'},{hint:518,name:'?set_max_executable_size@ResourceConstraints@v8@@QAEXH@Z'},{hint:519,name:'?set_max_old_space_size@ResourceConstraints@v8@@QAEXH@Z'},{hint:520,name:'?set_max_young_space_size@ResourceConstraints@v8@@QAEXH@Z'},{hint:521,name:'?set_stack_limit@ResourceConstraints@v8@@QAEXPAI@Z'},{hint:522,name:'?set_total_heap_size@HeapStatistics@v8@@AAEXI@Z'},{hint:523,name:'?set_total_heap_size_executable@HeapStatistics@v8@@AAEXI@Z'},{hint:524,name:'?set_used_heap_size@HeapStatistics@v8@@AAEXI@Z'},{hint:525,name:'?source@Extension@v8@@QAEPBDXZ'},{hint:526,name:'?stack_limit@ResourceConstraints@v8@@QBEPAIXZ'},{hint:527,name:'?total_heap_size@HeapStatistics@v8@@QAEIXZ'},{hint:528,name:'?total_heap_size_executable@HeapStatistics@v8@@QAEIXZ'},{hint:529,name:'?used_heap_size@HeapStatistics@v8@@QAEIXZ'}]}